target datalayout = "e-m:e-p270:32:32-p271:32:32-p272:64:64-i64:64-i128:128-f80:128-n8:16:32:64-S128"
target triple = "x86_64-unknown-linux-gnu"

%struct.USBWacomState = type { %struct.USBDevice, ptr, ptr, i32, i32, i32, i32, i32, i32, i32, i32, i8, i32 }
%struct.USBDevice = type { %struct.DeviceState, ptr, ptr, ptr, ptr, i32, ptr, ptr, i32, i32, i8, [32 x i8], i32, i8, i32, [8 x i8], [4096 x i8], i32, i32, i32, i32, %struct.USBEndpoint, [15 x %struct.USBEndpoint], [15 x %struct.USBEndpoint], %struct.anon, ptr, ptr, i32, i32, [16 x i32], ptr, [16 x ptr] }
%struct.DeviceState = type { %struct.Object, ptr, ptr, i8, i8, i64, ptr, i32, i8, ptr, %struct.NamedGPIOListHead, %struct.NamedClockListHead, %struct.BusStateHead, i32, i32, i32, %struct.ResettableState, ptr, %struct.MemReentrancyGuard }
%struct.Object = type { ptr, ptr, ptr, i32, ptr }
%struct.NamedGPIOListHead = type { ptr }
%struct.NamedClockListHead = type { ptr }
%struct.BusStateHead = type { ptr }
%struct.ResettableState = type { i32, i8, i8 }
%struct.MemReentrancyGuard = type { i8 }
%struct.USBEndpoint = type { i8, i8, i8, i8, i32, i32, i8, i8, ptr, %union.anon }
%union.anon = type { %struct.QTailQLink }
%struct.QTailQLink = type { ptr, ptr }
%struct.anon = type { ptr }

; Function Attrs: nounwind sspstrong uwtable
define internal void @usb_wacom_unrealize(ptr noundef %dev) #0 {
entry:
  %dev.addr = alloca ptr, align 8
  %s = alloca ptr, align 8
  store ptr %dev, ptr %dev.addr, align 8
  %0 = load ptr, ptr %dev.addr, align 8
  store ptr %0, ptr %s, align 8
  %1 = load ptr, ptr %s, align 8
  %mouse_grabbed = getelementptr inbounds %struct.USBWacomState, ptr %1, i32 0, i32 9
  %2 = load i32, ptr %mouse_grabbed, align 8
  %tobool = icmp ne i32 %2, 0
  br i1 %tobool, label %if.then, label %if.end

if.then:                                          ; preds = %entry
  %3 = load ptr, ptr %s, align 8
  %eh_entry = getelementptr inbounds %struct.USBWacomState, ptr %3, i32 0, i32 2
  %4 = load ptr, ptr %eh_entry, align 8
  call void @qemu_remove_mouse_event_handler(ptr noundef %4)
  %5 = load ptr, ptr %s, align 8
  %mouse_grabbed1 = getelementptr inbounds %struct.USBWacomState, ptr %5, i32 0, i32 9
  store i32 0, ptr %mouse_grabbed1, align 8
  br label %if.end

if.end:                                           ; preds = %if.then, %entry
  ret void
}