; Function Attrs: nounwind sspstrong uwtable
define internal void @usb_wacom_unrealize(ptr noundef captures(none) %dev) #0 {
entry:
  %mouse_grabbed = getelementptr inbounds nuw i8, ptr %dev, i64 5904
  %0 = load i32, ptr %mouse_grabbed, align 8
  %tobool.not = icmp eq i32 %0, 0
  br i1 %tobool.not, label %if.end, label %if.then

if.then:                                          ; preds = %entry
  %eh_entry = getelementptr inbounds nuw i8, ptr %dev, i64 5872
  %1 = load ptr, ptr %eh_entry, align 8
  tail call void @qemu_remove_mouse_event_handler(ptr noundef %1) #7
  store i32 0, ptr %mouse_grabbed, align 8
  br label %if.end

if.end:                                           ; preds = %if.then, %entry
  ret void
}